CCS PCM C Compiler, Version 5.007, 61971               23-Ara-21 22:51

               Filename:   C:\Users\Eray\Desktop\Timer0 Ýle DC Motor Kontrol.lst

               ROM used:   117 words (1%)
                           Largest free fragment is 2048
               RAM used:   13 (4%) at main() level
                           14 (4%) worst case
               Stack used: 1 locations (0 in main + 1 for interrupts)
               Stack size: 8

*
0000:  MOVLW  00
0001:  MOVWF  0A
0002:  GOTO   047
0003:  NOP
0004:  MOVWF  7F
0005:  SWAPF  03,W
0006:  CLRF   03
0007:  MOVWF  21
0008:  MOVF   0A,W
0009:  MOVWF  20
000A:  CLRF   0A
000B:  MOVF   04,W
000C:  MOVWF  22
000D:  MOVF   77,W
000E:  MOVWF  23
000F:  MOVF   78,W
0010:  MOVWF  24
0011:  MOVF   79,W
0012:  MOVWF  25
0013:  MOVF   7A,W
0014:  MOVWF  26
0015:  BCF    03.7
0016:  BCF    03.5
0017:  BTFSS  0B.5
0018:  GOTO   01B
0019:  BTFSC  0B.2
001A:  GOTO   02C
001B:  MOVF   22,W
001C:  MOVWF  04
001D:  MOVF   23,W
001E:  MOVWF  77
001F:  MOVF   24,W
0020:  MOVWF  78
0021:  MOVF   25,W
0022:  MOVWF  79
0023:  MOVF   26,W
0024:  MOVWF  7A
0025:  MOVF   20,W
0026:  MOVWF  0A
0027:  SWAPF  21,W
0028:  MOVWF  03
0029:  SWAPF  7F,F
002A:  SWAPF  7F,W
002B:  RETFIE
002C:  BCF    0A.3
002D:  BCF    0A.4
002E:  GOTO   02F
.................... #include<16f877.h> 
.................... //////// Standard Header file for the PIC16F877 device //////////////// 
.................... #device PIC16F877 
....................  
.................... #list 
....................  
....................  
.................... #use delay(clock = 4000000) 
....................  
.................... #use fast_io(a) 
.................... #use fast_io(b) 
....................  
.................... int sayi = 0; 
....................  
.................... #int_timer0 
....................  
.................... void timer0_kesme(){ 
.................... set_timer0(255); 
002F:  MOVLW  FF
0030:  MOVWF  01
.................... sayi++; 
0031:  INCF   27,F
....................  
.................... if(sayi %2 == 1){ 
0032:  MOVF   27,W
0033:  ANDLW  01
0034:  SUBLW  01
0035:  BTFSS  03.2
0036:  GOTO   039
.................... output_high(pin_b0); 
0037:  BSF    06.0
.................... output_low(pin_b7); 
0038:  BCF    06.7
.................... } 
....................  
.................... if(sayi %2 == 0){ 
0039:  MOVF   27,W
003A:  ANDLW  01
003B:  BTFSS  03.2
003C:  GOTO   03F
.................... output_high(pin_b7); 
003D:  BSF    06.7
.................... output_low(pin_b0); 
003E:  BCF    06.0
.................... } 
....................  
.................... if(sayi == 15){ 
003F:  MOVF   27,W
0040:  SUBLW  0F
0041:  BTFSC  03.2
.................... sayi = 0; 
0042:  CLRF   27
.................... } 
....................  
0043:  BCF    0B.2
0044:  BCF    0A.3
0045:  BCF    0A.4
0046:  GOTO   01B
.................... } 
....................  
.................... void main(){ 
0047:  CLRF   27
0048:  BSF    03.5
0049:  BSF    1F.0
004A:  BSF    1F.1
004B:  BSF    1F.2
004C:  BCF    1F.3
004D:  BCF    03.7
004E:  MOVLW  1F
004F:  ANDWF  03,F
.................... setup_psp(PSP_DISABLED); 
0050:  BCF    09.4
.................... setup_timer_2(T2_DISABLED,0,1); 
0051:  MOVLW  00
0052:  MOVWF  78
0053:  BCF    03.5
0054:  MOVWF  12
0055:  MOVLW  00
0056:  BSF    03.5
0057:  MOVWF  12
.................... setup_adc_ports(NO_ANALOGS); 
0058:  BSF    1F.0
0059:  BSF    1F.1
005A:  BSF    1F.2
005B:  BCF    1F.3
.................... setup_adc(ADC_OFF); 
005C:  BCF    03.5
005D:  BCF    1F.0
.................... setup_ccp1(CCP_OFF); 
005E:  MOVLW  F0
005F:  ANDWF  17,F
.................... setup_ccp2(CCP_OFF); 
0060:  ANDWF  1D,F
....................  
.................... set_tris_a(0x10); 
0061:  MOVLW  10
0062:  BSF    03.5
0063:  MOVWF  05
.................... set_tris_b(0x00); 
0064:  MOVLW  00
0065:  MOVWF  06
....................  
.................... output_b(0x00); 
0066:  BCF    03.5
0067:  CLRF   06
....................  
.................... setup_timer_0(RTCC_EXT_L_TO_H | RTCC_DIV_1); 
0068:  BSF    03.5
0069:  MOVF   01,W
006A:  ANDLW  C7
006B:  IORLW  28
006C:  MOVWF  01
....................  
.................... set_timer0(255); 
006D:  MOVLW  FF
006E:  BCF    03.5
006F:  MOVWF  01
....................  
.................... enable_interrupts(INT_timer0); 
0070:  BSF    0B.5
.................... enable_interrupts(GLOBAL); 
0071:  MOVLW  C0
0072:  IORWF  0B,F
....................  
.................... while(true); 
0073:  GOTO   073
....................  
.................... } 
....................  
0074:  SLEEP

Configuration Fuses:
   Word  1: 3F73   RC NOWDT PUT BROWNOUT NOLVP NOCPD NOWRT NODEBUG NOPROTECT
